target datalayout = "e-m:e-p270:32:32-p271:32:32-p272:64:64-i64:64-i128:128-f80:128-n8:16:32:64-S128"
target triple = "x86_64-pc-linux-gnu"

%struct.gfxinfo = type { i32, i32, i32, i32 }

; Function Attrs: nounwind uwtable
define internal i32 @php_get_wbmp(ptr noundef %0, ptr noundef %1, i32 noundef %2) #0 {
  %4 = alloca i32, align 4
  %5 = alloca ptr, align 8
  %6 = alloca ptr, align 8
  %7 = alloca i32, align 4
  %8 = alloca i32, align 4
  %9 = alloca i32, align 4
  %10 = alloca i32, align 4
  store ptr %0, ptr %5, align 8
  store ptr %1, ptr %6, align 8
  store i32 %2, ptr %7, align 4
  store i32 0, ptr %9, align 4
  store i32 0, ptr %10, align 4
  %11 = load ptr, ptr %5, align 8
  %12 = call i32 @_php_stream_seek(ptr noundef %11, i64 noundef 0, i32 noundef 0)
  %13 = icmp ne i32 %12, 0
  br i1 %13, label %14, label %15

14:                                               ; preds = %3
  store i32 0, ptr %4, align 4
  br label %94

15:                                               ; preds = %3
  %16 = load ptr, ptr %5, align 8
  %17 = call i32 @_php_stream_getc(ptr noundef %16)
  %18 = icmp ne i32 %17, 0
  br i1 %18, label %19, label %20

19:                                               ; preds = %15
  store i32 0, ptr %4, align 4
  br label %94

20:                                               ; preds = %15
  br label %21

21:                                               ; preds = %28, %20
  %22 = load ptr, ptr %5, align 8
  %23 = call i32 @_php_stream_getc(ptr noundef %22)
  store i32 %23, ptr %8, align 4
  %24 = load i32, ptr %8, align 4
  %25 = icmp slt i32 %24, 0
  br i1 %25, label %26, label %27

26:                                               ; preds = %21
  store i32 0, ptr %4, align 4
  br label %94

27:                                               ; preds = %21
  br label %28

28:                                               ; preds = %27
  %29 = load i32, ptr %8, align 4
  %30 = and i32 %29, 128
  %31 = icmp ne i32 %30, 0
  br i1 %31, label %21, label %32

32:                                               ; preds = %28
  br label %33

33:                                               ; preds = %49, %32
  %34 = load ptr, ptr %5, align 8
  %35 = call i32 @_php_stream_getc(ptr noundef %34)
  store i32 %35, ptr %8, align 4
  %36 = load i32, ptr %8, align 4
  %37 = icmp slt i32 %36, 0
  br i1 %37, label %38, label %39

38:                                               ; preds = %33
  store i32 0, ptr %4, align 4
  br label %94

39:                                               ; preds = %33
  %40 = load i32, ptr %9, align 4
  %41 = shl i32 %40, 7
  %42 = load i32, ptr %8, align 4
  %43 = and i32 %42, 127
  %44 = or i32 %41, %43
  store i32 %44, ptr %9, align 4
  %45 = load i32, ptr %9, align 4
  %46 = icmp sgt i32 %45, 2048
  br i1 %46, label %47, label %48

47:                                               ; preds = %39
  store i32 0, ptr %4, align 4
  br label %94

48:                                               ; preds = %39
  br label %49

49:                                               ; preds = %48
  %50 = load i32, ptr %8, align 4
  %51 = and i32 %50, 128
  %52 = icmp ne i32 %51, 0
  br i1 %52, label %33, label %53

53:                                               ; preds = %49
  br label %54

54:                                               ; preds = %70, %53
  %55 = load ptr, ptr %5, align 8
  %56 = call i32 @_php_stream_getc(ptr noundef %55)
  store i32 %56, ptr %8, align 4
  %57 = load i32, ptr %8, align 4
  %58 = icmp slt i32 %57, 0
  br i1 %58, label %59, label %60

59:                                               ; preds = %54
  store i32 0, ptr %4, align 4
  br label %94

60:                                               ; preds = %54
  %61 = load i32, ptr %10, align 4
  %62 = shl i32 %61, 7
  %63 = load i32, ptr %8, align 4
  %64 = and i32 %63, 127
  %65 = or i32 %62, %64
  store i32 %65, ptr %10, align 4
  %66 = load i32, ptr %10, align 4
  %67 = icmp sgt i32 %66, 2048
  br i1 %67, label %68, label %69

68:                                               ; preds = %60
  store i32 0, ptr %4, align 4
  br label %94

69:                                               ; preds = %60
  br label %70

70:                                               ; preds = %69
  %71 = load i32, ptr %8, align 4
  %72 = and i32 %71, 128
  %73 = icmp ne i32 %72, 0
  br i1 %73, label %54, label %74

74:                                               ; preds = %70
  %75 = load i32, ptr %10, align 4
  %76 = icmp ne i32 %75, 0
  br i1 %76, label %77, label %80

77:                                               ; preds = %74
  %78 = load i32, ptr %9, align 4
  %79 = icmp ne i32 %78, 0
  br i1 %79, label %81, label %80

80:                                               ; preds = %77, %74
  store i32 0, ptr %4, align 4
  br label %94

81:                                               ; preds = %77
  %82 = load i32, ptr %7, align 4
  %83 = icmp ne i32 %82, 0
  br i1 %83, label %93, label %84

84:                                               ; preds = %81
  %85 = load i32, ptr %9, align 4
  %86 = load ptr, ptr %6, align 8
  %87 = load ptr, ptr %86, align 8
  %88 = getelementptr inbounds %struct.gfxinfo, ptr %87, i32 0, i32 0
  store i32 %85, ptr %88, align 4
  %89 = load i32, ptr %10, align 4
  %90 = load ptr, ptr %6, align 8
  %91 = load ptr, ptr %90, align 8
  %92 = getelementptr inbounds %struct.gfxinfo, ptr %91, i32 0, i32 1
  store i32 %89, ptr %92, align 4
  br label %93

93:                                               ; preds = %84, %81
  store i32 15, ptr %4, align 4
  br label %94

94:                                               ; preds = %93, %80, %68, %59, %47, %38, %26, %19, %14
  %95 = load i32, ptr %4, align 4
  ret i32 %95
}