; Function Attrs: nounwind uwtable
define internal fastcc noundef i32 @php_get_wbmp(ptr noundef %0, ptr nocapture noundef readonly %1, i32 noundef %2) unnamed_addr #0 {
  %4 = tail call i32 @_php_stream_seek(ptr noundef %0, i64 noundef 0, i32 noundef 0) #13
  %.not = icmp eq i32 %4, 0
  br i1 %.not, label %5, label %.loopexit

5:                                                ; preds = %3
  %6 = tail call i32 @_php_stream_getc(ptr noundef %0) #13
  %.not32 = icmp eq i32 %6, 0
  br i1 %.not32, label %.preheader39, label %.loopexit

.preheader39:                                     ; preds = %5, %9
  %7 = tail call i32 @_php_stream_getc(ptr noundef %0) #13
  %8 = icmp slt i32 %7, 0
  br i1 %8, label %.loopexit, label %9

9:                                                ; preds = %.preheader39
  %10 = and i32 %7, 128
  %.not33 = icmp eq i32 %10, 0
  br i1 %.not33, label %.preheader37, label %.preheader39

.preheader37:                                     ; preds = %9, %18
  %.025 = phi i32 [ %16, %18 ], [ 0, %9 ]
  %11 = tail call i32 @_php_stream_getc(ptr noundef %0) #13
  %12 = icmp slt i32 %11, 0
  br i1 %12, label %.loopexit, label %13

13:                                               ; preds = %.preheader37
  %14 = shl nuw nsw i32 %.025, 7
  %15 = and i32 %11, 127
  %16 = or disjoint i32 %15, %14
  %17 = icmp ugt i32 %16, 2048
  br i1 %17, label %.loopexit, label %18

18:                                               ; preds = %13
  %19 = and i32 %11, 128
  %.not34 = icmp eq i32 %19, 0
  br i1 %.not34, label %.preheader, label %.preheader37

.preheader:                                       ; preds = %18, %27
  %.0 = phi i32 [ %25, %27 ], [ 0, %18 ]
  %20 = tail call i32 @_php_stream_getc(ptr noundef %0) #13
  %21 = icmp slt i32 %20, 0
  br i1 %21, label %.loopexit, label %22

22:                                               ; preds = %.preheader
  %23 = shl nuw nsw i32 %.0, 7
  %24 = and i32 %20, 127
  %25 = or disjoint i32 %24, %23
  %26 = icmp ugt i32 %25, 2048
  br i1 %26, label %.loopexit, label %27

27:                                               ; preds = %22
  %28 = and i32 %20, 128
  %.not35 = icmp eq i32 %28, 0
  br i1 %.not35, label %29, label %.preheader

29:                                               ; preds = %27
  %30 = icmp ne i32 %25, 0
  %31 = icmp ne i32 %16, 0
  %or.cond = and i1 %31, %30
  br i1 %or.cond, label %32, label %.loopexit

32:                                               ; preds = %29
  %.not36 = icmp eq i32 %2, 0
  br i1 %.not36, label %33, label %.loopexit

33:                                               ; preds = %32
  %34 = load ptr, ptr %1, align 8
  store i32 %16, ptr %34, align 4
  %35 = load ptr, ptr %1, align 8
  %36 = getelementptr inbounds i8, ptr %35, i64 4
  store i32 %25, ptr %36, align 4
  br label %.loopexit

.loopexit:                                        ; preds = %.preheader39, %13, %.preheader37, %22, %.preheader, %32, %33, %29, %5, %3
  %.026 = phi i32 [ 0, %3 ], [ 0, %5 ], [ 0, %29 ], [ 15, %33 ], [ 15, %32 ], [ 0, %.preheader ], [ 0, %22 ], [ 0, %.preheader37 ], [ 0, %13 ], [ 0, %.preheader39 ]
  ret i32 %.026
}